target datalayout = "e-m:e-p270:32:32-p271:32:32-p272:64:64-i64:64-i128:128-f80:128-n8:16:32:64-S128"
target triple = "x86_64-pc-linux-gnu"

%struct.GENERAL_NAME_st = type { i32, %union.anon }
%union.anon = type { ptr }
%struct.asn1_string_st = type { i32, i32, ptr, i64 }

@.str = private unnamed_addr constant [10 x i8] c"othername\00", align 1
@.str.1 = private unnamed_addr constant [14 x i8] c"<unsupported>\00", align 1
@.str.2 = private unnamed_addr constant [9 x i8] c"X400Name\00", align 1
@.str.3 = private unnamed_addr constant [13 x i8] c"EdiPartyName\00", align 1
@.str.4 = private unnamed_addr constant [6 x i8] c"email\00", align 1
@.str.5 = private unnamed_addr constant [4 x i8] c"DNS\00", align 1
@.str.6 = private unnamed_addr constant [4 x i8] c"URI\00", align 1
@.str.7 = private unnamed_addr constant [8 x i8] c"DirName\00", align 1
@.str.8 = private unnamed_addr constant [12 x i8] c"%d.%d.%d.%d\00", align 1
@.str.9 = private unnamed_addr constant [3 x i8] c"%X\00", align 1
@.str.10 = private unnamed_addr constant [2 x i8] c":\00", align 1
@.str.11 = private unnamed_addr constant [11 x i8] c"IP Address\00", align 1
@.str.12 = private unnamed_addr constant [10 x i8] c"<invalid>\00", align 1
@.str.13 = private unnamed_addr constant [14 x i8] c"Registered ID\00", align 1

; Function Attrs: nounwind uwtable
define hidden ptr @i2v_GENERAL_NAME(ptr noundef %0, ptr noundef %1, ptr noundef %2) #0 {
  %4 = alloca ptr, align 8
  %5 = alloca ptr, align 8
  %6 = alloca ptr, align 8
  %7 = alloca ptr, align 8
  %8 = alloca [256 x i8], align 16
  %9 = alloca [5 x i8], align 1
  %10 = alloca i32, align 4
  store ptr %0, ptr %4, align 8, !tbaa !6
  store ptr %1, ptr %5, align 8, !tbaa !17
  store ptr %2, ptr %6, align 8, !tbaa !13
  call void @llvm.lifetime.start.p0(i64 8, ptr %7) #6
  call void @llvm.lifetime.start.p0(i64 256, ptr %8) #6
  call void @llvm.lifetime.start.p0(i64 5, ptr %9) #6
  call void @llvm.lifetime.start.p0(i64 4, ptr %10) #6
  %11 = load ptr, ptr %5, align 8, !tbaa !17
  %12 = getelementptr inbounds nuw %struct.GENERAL_NAME_st, ptr %11, i32 0, i32 0
  %13 = load i32, ptr %12, align 8, !tbaa !31
  switch i32 %13, label %134 [
    i32 0, label %14
    i32 3, label %16
    i32 5, label %18
    i32 1, label %20
    i32 2, label %27
    i32 6, label %34
    i32 4, label %41
    i32 7, label %49
    i32 8, label %126
  ]

14:                                               ; preds = %3
  %15 = call i32 @X509V3_add_value(ptr noundef @.str, ptr noundef @.str.1, ptr noundef %6)
  br label %134

16:                                               ; preds = %3
  %17 = call i32 @X509V3_add_value(ptr noundef @.str.2, ptr noundef @.str.1, ptr noundef %6)
  br label %134

18:                                               ; preds = %3
  %19 = call i32 @X509V3_add_value(ptr noundef @.str.3, ptr noundef @.str.1, ptr noundef %6)
  br label %134

20:                                               ; preds = %3
  %21 = load ptr, ptr %5, align 8, !tbaa !17
  %22 = getelementptr inbounds nuw %struct.GENERAL_NAME_st, ptr %21, i32 0, i32 1
  %23 = load ptr, ptr %22, align 8, !tbaa !34
  %24 = getelementptr inbounds nuw %struct.asn1_string_st, ptr %23, i32 0, i32 2
  %25 = load ptr, ptr %24, align 8, !tbaa !35
  %26 = call i32 @X509V3_add_value_uchar(ptr noundef @.str.4, ptr noundef %25, ptr noundef %6)
  br label %134

27:                                               ; preds = %3
  %28 = load ptr, ptr %5, align 8, !tbaa !17
  %29 = getelementptr inbounds nuw %struct.GENERAL_NAME_st, ptr %28, i32 0, i32 1
  %30 = load ptr, ptr %29, align 8, !tbaa !34
  %31 = getelementptr inbounds nuw %struct.asn1_string_st, ptr %30, i32 0, i32 2
  %32 = load ptr, ptr %31, align 8, !tbaa !35
  %33 = call i32 @X509V3_add_value_uchar(ptr noundef @.str.5, ptr noundef %32, ptr noundef %6)
  br label %134

34:                                               ; preds = %3
  %35 = load ptr, ptr %5, align 8, !tbaa !17
  %36 = getelementptr inbounds nuw %struct.GENERAL_NAME_st, ptr %35, i32 0, i32 1
  %37 = load ptr, ptr %36, align 8, !tbaa !34
  %38 = getelementptr inbounds nuw %struct.asn1_string_st, ptr %37, i32 0, i32 2
  %39 = load ptr, ptr %38, align 8, !tbaa !35
  %40 = call i32 @X509V3_add_value_uchar(ptr noundef @.str.6, ptr noundef %39, ptr noundef %6)
  br label %134

41:                                               ; preds = %3
  %42 = load ptr, ptr %5, align 8, !tbaa !17
  %43 = getelementptr inbounds nuw %struct.GENERAL_NAME_st, ptr %42, i32 0, i32 1
  %44 = load ptr, ptr %43, align 8, !tbaa !34
  %45 = getelementptr inbounds [256 x i8], ptr %8, i64 0, i64 0
  %46 = call ptr @X509_NAME_oneline(ptr noundef %44, ptr noundef %45, i32 noundef 256)
  %47 = getelementptr inbounds [256 x i8], ptr %8, i64 0, i64 0
  %48 = call i32 @X509V3_add_value(ptr noundef @.str.7, ptr noundef %47, ptr noundef %6)
  br label %134

49:                                               ; preds = %3
  %50 = load ptr, ptr %5, align 8, !tbaa !17
  %51 = getelementptr inbounds nuw %struct.GENERAL_NAME_st, ptr %50, i32 0, i32 1
  %52 = load ptr, ptr %51, align 8, !tbaa !34
  %53 = getelementptr inbounds nuw %struct.asn1_string_st, ptr %52, i32 0, i32 2
  %54 = load ptr, ptr %53, align 8, !tbaa !35
  store ptr %54, ptr %7, align 8, !tbaa !37
  %55 = load ptr, ptr %5, align 8, !tbaa !17
  %56 = getelementptr inbounds nuw %struct.GENERAL_NAME_st, ptr %55, i32 0, i32 1
  %57 = load ptr, ptr %56, align 8, !tbaa !34
  %58 = getelementptr inbounds nuw %struct.asn1_string_st, ptr %57, i32 0, i32 0
  %59 = load i32, ptr %58, align 8, !tbaa !38
  %60 = icmp eq i32 %59, 4
  br i1 %60, label %61, label %80

61:                                               ; preds = %49
  %62 = getelementptr inbounds [256 x i8], ptr %8, i64 0, i64 0
  %63 = load ptr, ptr %7, align 8, !tbaa !37
  %64 = getelementptr inbounds i8, ptr %63, i64 0
  %65 = load i8, ptr %64, align 1, !tbaa !34
  %66 = zext i8 %65 to i32
  %67 = load ptr, ptr %7, align 8, !tbaa !37
  %68 = getelementptr inbounds i8, ptr %67, i64 1
  %69 = load i8, ptr %68, align 1, !tbaa !34
  %70 = zext i8 %69 to i32
  %71 = load ptr, ptr %7, align 8, !tbaa !37
  %72 = getelementptr inbounds i8, ptr %71, i64 2
  %73 = load i8, ptr %72, align 1, !tbaa !34
  %74 = zext i8 %73 to i32
  %75 = load ptr, ptr %7, align 8, !tbaa !37
  %76 = getelementptr inbounds i8, ptr %75, i64 3
  %77 = load i8, ptr %76, align 1, !tbaa !34
  %78 = zext i8 %77 to i32
  %79 = call i32 (ptr, i64, ptr, ...) @BIO_snprintf(ptr noundef %62, i64 noundef 256, ptr noundef @.str.8, i32 noundef %66, i32 noundef %70, i32 noundef %74, i32 noundef %78)
  br label %123

80:                                               ; preds = %49
  %81 = load ptr, ptr %5, align 8, !tbaa !17
  %82 = getelementptr inbounds nuw %struct.GENERAL_NAME_st, ptr %81, i32 0, i32 1
  %83 = load ptr, ptr %82, align 8, !tbaa !34
  %84 = getelementptr inbounds nuw %struct.asn1_string_st, ptr %83, i32 0, i32 0
  %85 = load i32, ptr %84, align 8, !tbaa !38
  %86 = icmp eq i32 %85, 16
  br i1 %86, label %87, label %120

87:                                               ; preds = %80
  %88 = getelementptr inbounds [256 x i8], ptr %8, i64 0, i64 0
  store i8 0, ptr %88, align 16, !tbaa !34
  store i32 0, ptr %10, align 4, !tbaa !39
  br label %89

89:                                               ; preds = %116, %87
  %90 = load i32, ptr %10, align 4, !tbaa !39
  %91 = icmp slt i32 %90, 8
  br i1 %91, label %92, label %119

92:                                               ; preds = %89
  %93 = getelementptr inbounds [5 x i8], ptr %9, i64 0, i64 0
  %94 = load ptr, ptr %7, align 8, !tbaa !37
  %95 = getelementptr inbounds i8, ptr %94, i64 0
  %96 = load i8, ptr %95, align 1, !tbaa !34
  %97 = zext i8 %96 to i32
  %98 = shl i32 %97, 8
  %99 = load ptr, ptr %7, align 8, !tbaa !37
  %100 = getelementptr inbounds i8, ptr %99, i64 1
  %101 = load i8, ptr %100, align 1, !tbaa !34
  %102 = zext i8 %101 to i32
  %103 = or i32 %98, %102
  %104 = call i32 (ptr, i64, ptr, ...) @BIO_snprintf(ptr noundef %93, i64 noundef 5, ptr noundef @.str.9, i32 noundef %103)
  %105 = load ptr, ptr %7, align 8, !tbaa !37
  %106 = getelementptr inbounds i8, ptr %105, i64 2
  store ptr %106, ptr %7, align 8, !tbaa !37
  %107 = getelementptr inbounds [256 x i8], ptr %8, i64 0, i64 0
  %108 = getelementptr inbounds [5 x i8], ptr %9, i64 0, i64 0
  %109 = call ptr @strcat(ptr noundef %107, ptr noundef %108) #6
  %110 = load i32, ptr %10, align 4, !tbaa !39
  %111 = icmp ne i32 %110, 7
  br i1 %111, label %112, label %115

112:                                              ; preds = %92
  %113 = getelementptr inbounds [256 x i8], ptr %8, i64 0, i64 0
  %114 = call ptr @strcat(ptr noundef %113, ptr noundef @.str.10) #6
  br label %115

115:                                              ; preds = %112, %92
  br label %116

116:                                              ; preds = %115
  %117 = load i32, ptr %10, align 4, !tbaa !39
  %118 = add nsw i32 %117, 1
  store i32 %118, ptr %10, align 4, !tbaa !39
  br label %89, !llvm.loop !40

119:                                              ; preds = %89
  br label %122

120:                                              ; preds = %80
  %121 = call i32 @X509V3_add_value(ptr noundef @.str.11, ptr noundef @.str.12, ptr noundef %6)
  br label %134

122:                                              ; preds = %119
  br label %123

123:                                              ; preds = %122, %61
  %124 = getelementptr inbounds [256 x i8], ptr %8, i64 0, i64 0
  %125 = call i32 @X509V3_add_value(ptr noundef @.str.11, ptr noundef %124, ptr noundef %6)
  br label %134

126:                                              ; preds = %3
  %127 = getelementptr inbounds [256 x i8], ptr %8, i64 0, i64 0
  %128 = load ptr, ptr %5, align 8, !tbaa !17
  %129 = getelementptr inbounds nuw %struct.GENERAL_NAME_st, ptr %128, i32 0, i32 1
  %130 = load ptr, ptr %129, align 8, !tbaa !34
  %131 = call i32 @i2t_ASN1_OBJECT(ptr noundef %127, i32 noundef 256, ptr noundef %130)
  %132 = getelementptr inbounds [256 x i8], ptr %8, i64 0, i64 0
  %133 = call i32 @X509V3_add_value(ptr noundef @.str.13, ptr noundef %132, ptr noundef %6)
  br label %134

134:                                              ; preds = %3, %126, %123, %120, %41, %34, %27, %20, %18, %16, %14
  %135 = load ptr, ptr %6, align 8, !tbaa !13
  call void @llvm.lifetime.end.p0(i64 4, ptr %10) #6
  call void @llvm.lifetime.end.p0(i64 5, ptr %9) #6
  call void @llvm.lifetime.end.p0(i64 256, ptr %8) #6
  call void @llvm.lifetime.end.p0(i64 8, ptr %7) #6
  ret ptr %135
}