; Function Attrs: nounwind uwtable
define hidden ptr @i2v_GENERAL_NAME(ptr readnone captures(none) %0, ptr noundef readonly captures(none) %1, ptr noundef %2) local_unnamed_addr #0 {
  %4 = alloca ptr, align 8
  %5 = alloca [256 x i8], align 16
  %6 = alloca [5 x i8], align 1
  store ptr %2, ptr %4, align 8, !tbaa !26
  call void @llvm.lifetime.start.p0(i64 256, ptr nonnull %5) #7
  call void @llvm.lifetime.start.p0(i64 5, ptr nonnull %6) #7
  %7 = load i32, ptr %1, align 8, !tbaa !28
  switch i32 %7, label %86 [
    i32 0, label %8
    i32 3, label %10
    i32 5, label %12
    i32 1, label %14
    i32 2, label %20
    i32 6, label %26
    i32 4, label %32
    i32 7, label %37
    i32 8, label %81
  ]

8:                                                ; preds = %3
  %9 = call i32 @X509V3_add_value(ptr noundef nonnull @.str, ptr noundef nonnull @.str.1, ptr noundef nonnull %4) #7
  br label %86

10:                                               ; preds = %3
  %11 = call i32 @X509V3_add_value(ptr noundef nonnull @.str.2, ptr noundef nonnull @.str.1, ptr noundef nonnull %4) #7
  br label %86

12:                                               ; preds = %3
  %13 = call i32 @X509V3_add_value(ptr noundef nonnull @.str.3, ptr noundef nonnull @.str.1, ptr noundef nonnull %4) #7
  br label %86

14:                                               ; preds = %3
  %15 = getelementptr inbounds nuw i8, ptr %1, i64 8
  %16 = load ptr, ptr %15, align 8, !tbaa !30
  %17 = getelementptr inbounds nuw i8, ptr %16, i64 8
  %18 = load ptr, ptr %17, align 8, !tbaa !31
  %19 = call i32 @X509V3_add_value_uchar(ptr noundef nonnull @.str.4, ptr noundef %18, ptr noundef nonnull %4) #7
  br label %86

20:                                               ; preds = %3
  %21 = getelementptr inbounds nuw i8, ptr %1, i64 8
  %22 = load ptr, ptr %21, align 8, !tbaa !30
  %23 = getelementptr inbounds nuw i8, ptr %22, i64 8
  %24 = load ptr, ptr %23, align 8, !tbaa !31
  %25 = call i32 @X509V3_add_value_uchar(ptr noundef nonnull @.str.5, ptr noundef %24, ptr noundef nonnull %4) #7
  br label %86

26:                                               ; preds = %3
  %27 = getelementptr inbounds nuw i8, ptr %1, i64 8
  %28 = load ptr, ptr %27, align 8, !tbaa !30
  %29 = getelementptr inbounds nuw i8, ptr %28, i64 8
  %30 = load ptr, ptr %29, align 8, !tbaa !31
  %31 = call i32 @X509V3_add_value_uchar(ptr noundef nonnull @.str.6, ptr noundef %30, ptr noundef nonnull %4) #7
  br label %86

32:                                               ; preds = %3
  %33 = getelementptr inbounds nuw i8, ptr %1, i64 8
  %34 = load ptr, ptr %33, align 8, !tbaa !30
  %35 = call ptr @X509_NAME_oneline(ptr noundef %34, ptr noundef nonnull %5, i32 noundef 256) #7
  %36 = call i32 @X509V3_add_value(ptr noundef nonnull @.str.7, ptr noundef nonnull %5, ptr noundef nonnull %4) #7
  br label %86

37:                                               ; preds = %3
  %38 = getelementptr inbounds nuw i8, ptr %1, i64 8
  %39 = load ptr, ptr %38, align 8, !tbaa !30
  %40 = getelementptr inbounds nuw i8, ptr %39, i64 8
  %41 = load ptr, ptr %40, align 8, !tbaa !31
  %42 = load i32, ptr %39, align 8, !tbaa !34
  switch i32 %42, label %78 [
    i32 4, label %43
    i32 16, label %56
  ]

43:                                               ; preds = %37
  %44 = load i8, ptr %41, align 1, !tbaa !30
  %45 = zext i8 %44 to i32
  %46 = getelementptr inbounds nuw i8, ptr %41, i64 1
  %47 = load i8, ptr %46, align 1, !tbaa !30
  %48 = zext i8 %47 to i32
  %49 = getelementptr inbounds nuw i8, ptr %41, i64 2
  %50 = load i8, ptr %49, align 1, !tbaa !30
  %51 = zext i8 %50 to i32
  %52 = getelementptr inbounds nuw i8, ptr %41, i64 3
  %53 = load i8, ptr %52, align 1, !tbaa !30
  %54 = zext i8 %53 to i32
  %55 = call i32 (ptr, i64, ptr, ...) @BIO_snprintf(ptr noundef nonnull %5, i64 noundef 256, ptr noundef nonnull @.str.8, i32 noundef %45, i32 noundef %48, i32 noundef %51, i32 noundef %54) #7
  br label %.loopexit

56:                                               ; preds = %37
  store i8 0, ptr %5, align 16, !tbaa !30
  %57 = load i8, ptr %41, align 1, !tbaa !30
  %58 = zext i8 %57 to i32
  %59 = shl nuw nsw i32 %58, 8
  %60 = getelementptr inbounds nuw i8, ptr %41, i64 1
  %61 = load i8, ptr %60, align 1, !tbaa !30
  %62 = zext i8 %61 to i32
  %63 = or disjoint i32 %59, %62
  %64 = call i32 (ptr, i64, ptr, ...) @BIO_snprintf(ptr noundef nonnull %6, i64 noundef 5, ptr noundef nonnull @.str.9, i32 noundef %63) #7
  %65 = call ptr @strcat(ptr noundef nonnull dereferenceable(1) %5, ptr noundef nonnull dereferenceable(1) %6) #7
  br label %66

66:                                               ; preds = %56, %66
  %.0182024 = phi ptr [ %41, %56 ], [ %67, %66 ]
  %.02123 = phi i32 [ 0, %56 ], [ %68, %66 ]
  %67 = getelementptr inbounds nuw i8, ptr %.0182024, i64 2
  %strlen = call i64 @strlen(ptr nonnull dereferenceable(1) %5)
  %endptr = getelementptr inbounds i8, ptr %5, i64 %strlen
  store i16 58, ptr %endptr, align 1
  %68 = add nuw nsw i32 %.02123, 1
  %69 = load i8, ptr %67, align 1, !tbaa !30
  %70 = zext i8 %69 to i32
  %71 = shl nuw nsw i32 %70, 8
  %72 = getelementptr inbounds nuw i8, ptr %.0182024, i64 3
  %73 = load i8, ptr %72, align 1, !tbaa !30
  %74 = zext i8 %73 to i32
  %75 = or disjoint i32 %71, %74
  %76 = call i32 (ptr, i64, ptr, ...) @BIO_snprintf(ptr noundef nonnull %6, i64 noundef 5, ptr noundef nonnull @.str.9, i32 noundef %75) #7
  %77 = call ptr @strcat(ptr noundef nonnull dereferenceable(1) %5, ptr noundef nonnull dereferenceable(1) %6) #7
  %.not = icmp eq i32 %68, 7
  br i1 %.not, label %.loopexit, label %66

78:                                               ; preds = %37
  %79 = call i32 @X509V3_add_value(ptr noundef nonnull @.str.11, ptr noundef nonnull @.str.12, ptr noundef nonnull %4) #7
  br label %86

.loopexit:                                        ; preds = %66, %43
  %80 = call i32 @X509V3_add_value(ptr noundef nonnull @.str.11, ptr noundef nonnull %5, ptr noundef nonnull %4) #7
  br label %86

81:                                               ; preds = %3
  %82 = getelementptr inbounds nuw i8, ptr %1, i64 8
  %83 = load ptr, ptr %82, align 8, !tbaa !30
  %84 = call i32 @i2t_ASN1_OBJECT(ptr noundef nonnull %5, i32 noundef 256, ptr noundef %83) #7
  %85 = call i32 @X509V3_add_value(ptr noundef nonnull @.str.13, ptr noundef nonnull %5, ptr noundef nonnull %4) #7
  br label %86

86:                                               ; preds = %81, %.loopexit, %78, %32, %26, %20, %14, %12, %10, %8, %3
  %87 = load ptr, ptr %4, align 8, !tbaa !26
  call void @llvm.lifetime.end.p0(i64 5, ptr nonnull %6) #7
  call void @llvm.lifetime.end.p0(i64 256, ptr nonnull %5) #7
  ret ptr %87
}